target datalayout = "e-m:e-p270:32:32-p271:32:32-p272:64:64-i64:64-i128:128-f80:128-n8:16:32:64-S128"
target triple = "x86_64-pc-linux-gnu"

%struct.Node = type { i32 }
%struct.Expr = type { i32 }
%struct.ForEachState = type { ptr, i32 }
%struct.List = type { i32, i32, i32, ptr, [0 x %union.ListCell] }
%union.ListCell = type { ptr }
%struct.RestrictInfo = type { i32, ptr, i8, i8, i8, i8, i8, i8, i32, i32, i32, ptr, ptr, ptr, ptr, ptr, ptr, ptr, i32, ptr, %struct.QualCost, double, double, ptr, ptr, ptr, ptr, ptr, ptr, i8, i32, double, double, double, double, i32, i32 }
%struct.QualCost = type { double, double }
%struct.Const = type { %struct.Expr, i32, i32, i32, i32, i64, i8, i8, i32 }

; Function Attrs: inlinehint nounwind uwtable
define internal zeroext i1 @DatumGetBool(i64 noundef %0) #1 {
  %2 = alloca i64, align 8
  store i64 %0, ptr %2, align 8
  %3 = load i64, ptr %2, align 8
  %4 = icmp ne i64 %3, 0
  ret i1 %4
}

; Function Attrs: inlinehint nounwind uwtable
define internal zeroext i1 @rinfo_is_constant_true(ptr noundef %0) #1 {
  %2 = alloca ptr, align 8
  store ptr %0, ptr %2, align 8
  %3 = load ptr, ptr %2, align 8
  %4 = getelementptr inbounds nuw %struct.RestrictInfo, ptr %3, i32 0, i32 1
  %5 = load ptr, ptr %4, align 8
  %6 = getelementptr inbounds nuw %struct.Node, ptr %5, i32 0, i32 0
  %7 = load i32, ptr %6, align 4
  %8 = icmp eq i32 %7, 7
  br i1 %8, label %9, label %23

9:                                                ; preds = %1
  %10 = load ptr, ptr %2, align 8
  %11 = getelementptr inbounds nuw %struct.RestrictInfo, ptr %10, i32 0, i32 1
  %12 = load ptr, ptr %11, align 8
  %13 = getelementptr inbounds nuw %struct.Const, ptr %12, i32 0, i32 6
  %14 = load i8, ptr %13, align 8, !range !4, !noundef !5
  %15 = trunc i8 %14 to i1
  br i1 %15, label %23, label %16

16:                                               ; preds = %9
  %17 = load ptr, ptr %2, align 8
  %18 = getelementptr inbounds nuw %struct.RestrictInfo, ptr %17, i32 0, i32 1
  %19 = load ptr, ptr %18, align 8
  %20 = getelementptr inbounds nuw %struct.Const, ptr %19, i32 0, i32 5
  %21 = load i64, ptr %20, align 8
  %22 = call zeroext i1 @DatumGetBool(i64 noundef %21)
  br label %23

23:                                               ; preds = %16, %9, %1
  %24 = phi i1 [ false, %9 ], [ false, %1 ], [ %22, %16 ]
  ret i1 %24
}

; Function Attrs: nounwind uwtable
define dso_local void @extract_actual_join_clauses(ptr noundef %0, ptr noundef %1, ptr noundef %2, ptr noundef %3) #0 {
  %5 = alloca ptr, align 8
  %6 = alloca ptr, align 8
  %7 = alloca ptr, align 8
  %8 = alloca ptr, align 8
  %9 = alloca ptr, align 8
  %10 = alloca %struct.ForEachState, align 8
  %11 = alloca ptr, align 8
  store ptr %0, ptr %5, align 8
  store ptr %1, ptr %6, align 8
  store ptr %2, ptr %7, align 8
  store ptr %3, ptr %8, align 8
  call void @llvm.lifetime.start.p0(i64 8, ptr %9) #6
  %12 = load ptr, ptr %7, align 8
  store ptr null, ptr %12, align 8
  %13 = load ptr, ptr %8, align 8
  store ptr null, ptr %13, align 8
  call void @llvm.lifetime.start.p0(i64 16, ptr %10) #6
  %14 = getelementptr inbounds nuw %struct.ForEachState, ptr %10, i32 0, i32 0
  %15 = load ptr, ptr %5, align 8
  store ptr %15, ptr %14, align 8
  %16 = getelementptr inbounds nuw %struct.ForEachState, ptr %10, i32 0, i32 1
  store i32 0, ptr %16, align 8
  %17 = getelementptr i8, ptr %10, i64 12
  call void @llvm.memset.p0.i64(ptr align 4 %17, i8 0, i64 4, i1 false)
  br label %18

18:                                               ; preds = %87, %4
  %19 = getelementptr inbounds nuw %struct.ForEachState, ptr %10, i32 0, i32 0
  %20 = load ptr, ptr %19, align 8
  %21 = icmp ne ptr %20, null
  br i1 %21, label %22, label %39

22:                                               ; preds = %18
  %23 = getelementptr inbounds nuw %struct.ForEachState, ptr %10, i32 0, i32 1
  %24 = load i32, ptr %23, align 8
  %25 = getelementptr inbounds nuw %struct.ForEachState, ptr %10, i32 0, i32 0
  %26 = load ptr, ptr %25, align 8
  %27 = getelementptr inbounds nuw %struct.List, ptr %26, i32 0, i32 1
  %28 = load i32, ptr %27, align 4
  %29 = icmp slt i32 %24, %28
  br i1 %29, label %30, label %39

30:                                               ; preds = %22
  %31 = getelementptr inbounds nuw %struct.ForEachState, ptr %10, i32 0, i32 0
  %32 = load ptr, ptr %31, align 8
  %33 = getelementptr inbounds nuw %struct.List, ptr %32, i32 0, i32 3
  %34 = load ptr, ptr %33, align 8
  %35 = getelementptr inbounds nuw %struct.ForEachState, ptr %10, i32 0, i32 1
  %36 = load i32, ptr %35, align 8
  %37 = sext i32 %36 to i64
  %38 = getelementptr inbounds %union.ListCell, ptr %34, i64 %37
  store ptr %38, ptr %9, align 8
  br label %40

39:                                               ; preds = %22, %18
  store ptr null, ptr %9, align 8
  br label %40

40:                                               ; preds = %39, %30
  %41 = phi i32 [ 1, %30 ], [ 0, %39 ]
  %42 = icmp ne i32 %41, 0
  br i1 %42, label %44, label %43

43:                                               ; preds = %40
  call void @llvm.lifetime.end.p0(i64 16, ptr %10) #6
  br label %91

44:                                               ; preds = %40
  call void @llvm.lifetime.start.p0(i64 8, ptr %11) #6
  %45 = load ptr, ptr %9, align 8
  %46 = load ptr, ptr %45, align 8
  store ptr %46, ptr %11, align 8
  %47 = load ptr, ptr %11, align 8
  %48 = getelementptr inbounds nuw %struct.RestrictInfo, ptr %47, i32 0, i32 2
  %49 = load i8, ptr %48, align 8, !range !4, !noundef !5
  %50 = trunc i8 %49 to i1
  br i1 %50, label %57, label %51

51:                                               ; preds = %44
  %52 = load ptr, ptr %11, align 8
  %53 = getelementptr inbounds nuw %struct.RestrictInfo, ptr %52, i32 0, i32 12
  %54 = load ptr, ptr %53, align 8
  %55 = load ptr, ptr %6, align 8
  %56 = call zeroext i1 @bms_is_subset(ptr noundef %54, ptr noundef %55)
  br i1 %56, label %74, label %57

57:                                               ; preds = %51, %44
  %58 = load ptr, ptr %11, align 8
  %59 = getelementptr inbounds nuw %struct.RestrictInfo, ptr %58, i32 0, i32 4
  %60 = load i8, ptr %59, align 2, !range !4, !noundef !5
  %61 = trunc i8 %60 to i1
  br i1 %61, label %73, label %62

62:                                               ; preds = %57
  %63 = load ptr, ptr %11, align 8
  %64 = call zeroext i1 @rinfo_is_constant_true(ptr noundef %63)
  br i1 %64, label %73, label %65

65:                                               ; preds = %62
  %66 = load ptr, ptr %8, align 8
  %67 = load ptr, ptr %66, align 8
  %68 = load ptr, ptr %11, align 8
  %69 = getelementptr inbounds nuw %struct.RestrictInfo, ptr %68, i32 0, i32 1
  %70 = load ptr, ptr %69, align 8
  %71 = call ptr @lappend(ptr noundef %67, ptr noundef %70)
  %72 = load ptr, ptr %8, align 8
  store ptr %71, ptr %72, align 8
  br label %73

73:                                               ; preds = %65, %62, %57
  br label %86

74:                                               ; preds = %51
  %75 = load ptr, ptr %11, align 8
  %76 = call zeroext i1 @rinfo_is_constant_true(ptr noundef %75)
  br i1 %76, label %85, label %77

77:                                               ; preds = %74
  %78 = load ptr, ptr %7, align 8
  %79 = load ptr, ptr %78, align 8
  %80 = load ptr, ptr %11, align 8
  %81 = getelementptr inbounds nuw %struct.RestrictInfo, ptr %80, i32 0, i32 1
  %82 = load ptr, ptr %81, align 8
  %83 = call ptr @lappend(ptr noundef %79, ptr noundef %82)
  %84 = load ptr, ptr %7, align 8
  store ptr %83, ptr %84, align 8
  br label %85

85:                                               ; preds = %77, %74
  br label %86

86:                                               ; preds = %85, %73
  call void @llvm.lifetime.end.p0(i64 8, ptr %11) #6
  br label %87

87:                                               ; preds = %86
  %88 = getelementptr inbounds nuw %struct.ForEachState, ptr %10, i32 0, i32 1
  %89 = load i32, ptr %88, align 8
  %90 = add i32 %89, 1
  store i32 %90, ptr %88, align 8
  br label %18, !llvm.loop !11

91:                                               ; preds = %43
  call void @llvm.lifetime.end.p0(i64 8, ptr %9) #6
  ret void
}