; Function Attrs: nounwind uwtable
define dso_local void @extract_actual_join_clauses(ptr noundef readonly captures(address_is_null) %0, ptr noundef %1, ptr noundef captures(none) initializes((0, 8)) %2, ptr noundef captures(none) initializes((0, 8)) %3) local_unnamed_addr #0 {
  store ptr null, ptr %2, align 8
  store ptr null, ptr %3, align 8
  %5 = getelementptr inbounds nuw i8, ptr %0, i64 4
  %.not = icmp eq ptr %0, null
  br i1 %.not, label %._crit_edge, label %.lr.ph

.lr.ph:                                           ; preds = %4
  %6 = getelementptr inbounds nuw i8, ptr %0, i64 16
  %7 = load i32, ptr %5, align 4
  %8 = icmp sgt i32 %7, 0
  br i1 %8, label %.lr.ph31, label %._crit_edge

._crit_edge:                                      ; preds = %45, %.lr.ph, %4
  ret void

.lr.ph31:                                         ; preds = %.lr.ph, %45
  %indvars.iv = phi i64 [ %indvars.iv.next, %45 ], [ 0, %.lr.ph ]
  %9 = load ptr, ptr %6, align 8
  %10 = getelementptr inbounds nuw %union.ListCell, ptr %9, i64 %indvars.iv
  %11 = load ptr, ptr %10, align 8
  %12 = getelementptr inbounds nuw i8, ptr %11, i64 16
  %13 = load i8, ptr %12, align 8, !range !4, !noundef !5
  %14 = trunc nuw i8 %13 to i1
  br i1 %14, label %19, label %15

15:                                               ; preds = %.lr.ph31
  %16 = getelementptr inbounds nuw i8, ptr %11, i64 48
  %17 = load ptr, ptr %16, align 8
  %18 = tail call zeroext i1 @bms_is_subset(ptr noundef %17, ptr noundef %1) #5
  br i1 %18, label %33, label %19

19:                                               ; preds = %15, %.lr.ph31
  %20 = getelementptr inbounds nuw i8, ptr %11, i64 18
  %21 = load i8, ptr %20, align 2, !range !4, !noundef !5
  %22 = trunc nuw i8 %21 to i1
  br i1 %22, label %45, label %23

23:                                               ; preds = %19
  %24 = getelementptr i8, ptr %11, i64 8
  %.val22 = load ptr, ptr %24, align 8
  %25 = load i32, ptr %.val22, align 4
  %26 = icmp eq i32 %25, 7
  br i1 %26, label %27, label %.sink.split

27:                                               ; preds = %23
  %28 = getelementptr inbounds nuw i8, ptr %.val22, i64 32
  %29 = load i8, ptr %28, align 8, !range !4, !noundef !5
  %30 = trunc nuw i8 %29 to i1
  br i1 %30, label %.sink.split, label %rinfo_is_constant_true.exit

rinfo_is_constant_true.exit:                      ; preds = %27
  %31 = getelementptr inbounds nuw i8, ptr %.val22, i64 24
  %32 = load i64, ptr %31, align 8
  %.not27 = icmp eq i64 %32, 0
  br i1 %.not27, label %.sink.split, label %45

33:                                               ; preds = %15
  %34 = getelementptr i8, ptr %11, i64 8
  %.val = load ptr, ptr %34, align 8
  %35 = load i32, ptr %.val, align 4
  %36 = icmp eq i32 %35, 7
  br i1 %36, label %37, label %.sink.split

37:                                               ; preds = %33
  %38 = getelementptr inbounds nuw i8, ptr %.val, i64 32
  %39 = load i8, ptr %38, align 8, !range !4, !noundef !5
  %40 = trunc nuw i8 %39 to i1
  br i1 %40, label %.sink.split, label %rinfo_is_constant_true.exit23

rinfo_is_constant_true.exit23:                    ; preds = %37
  %41 = getelementptr inbounds nuw i8, ptr %.val, i64 24
  %42 = load i64, ptr %41, align 8
  %.not26 = icmp eq i64 %42, 0
  br i1 %.not26, label %.sink.split, label %45

.sink.split:                                      ; preds = %rinfo_is_constant_true.exit23, %37, %33, %rinfo_is_constant_true.exit, %27, %23
  %.sink = phi ptr [ %3, %23 ], [ %3, %27 ], [ %3, %rinfo_is_constant_true.exit ], [ %2, %33 ], [ %2, %37 ], [ %2, %rinfo_is_constant_true.exit23 ]
  %.val.sink = phi ptr [ %.val22, %23 ], [ %.val22, %27 ], [ %.val22, %rinfo_is_constant_true.exit ], [ %.val, %33 ], [ %.val, %37 ], [ %.val, %rinfo_is_constant_true.exit23 ]
  %43 = load ptr, ptr %.sink, align 8
  %44 = tail call ptr @lappend(ptr noundef %43, ptr noundef nonnull %.val.sink) #5
  store ptr %44, ptr %.sink, align 8
  br label %45

45:                                               ; preds = %.sink.split, %rinfo_is_constant_true.exit23, %19, %rinfo_is_constant_true.exit
  %indvars.iv.next = add nuw nsw i64 %indvars.iv, 1
  %46 = load i32, ptr %5, align 4
  %47 = sext i32 %46 to i64
  %48 = icmp slt i64 %indvars.iv.next, %47
  br i1 %48, label %.lr.ph31, label %._crit_edge
}